target datalayout = "e-m:e-p270:32:32-p271:32:32-p272:64:64-i64:64-i128:128-f80:128-n8:16:32:64-S128"
target triple = "x86_64-pc-linux-gnu"

%struct.archive_write = type { %struct.archive, i32, i64, i64, ptr, i64, ptr, ptr, ptr, ptr, ptr, i32, i32, ptr, ptr, ptr, ptr, ptr, ptr, ptr, ptr, ptr, ptr, ptr, ptr, ptr, ptr }
%struct.archive = type { i32, i32, ptr, i32, ptr, i32, i32, ptr, %struct.archive_string, ptr, i32, i32, ptr, ptr, i64, i64, i64, i8, i64 }
%struct.archive_string = type { ptr, i64, i64 }
%struct.shar = type { i32, i32, ptr, i32, ptr, [45 x i8], i64, i32, %struct.archive_string, %struct.archive_string }

@.str.9 = private unnamed_addr constant [14 x i8] c"Out of memory\00", align 1

; Function Attrs: nounwind uwtable
define internal i64 @archive_write_shar_data_sed(ptr noundef %0, ptr noundef %1, i64 noundef %2) #0 {
  %4 = alloca i64, align 8
  %5 = alloca ptr, align 8
  %6 = alloca ptr, align 8
  %7 = alloca i64, align 8
  %8 = alloca ptr, align 8
  %9 = alloca ptr, align 8
  %10 = alloca ptr, align 8
  %11 = alloca ptr, align 8
  %12 = alloca i32, align 4
  %13 = alloca i64, align 8
  %14 = alloca i32, align 4
  store ptr %0, ptr %5, align 8, !tbaa !9
  store ptr %1, ptr %6, align 8, !tbaa !50
  store i64 %2, ptr %7, align 8, !tbaa !51
  call void @llvm.lifetime.start.p0(i64 8, ptr %8) #7
  call void @llvm.lifetime.start.p0(i64 8, ptr %9) #7
  call void @llvm.lifetime.start.p0(i64 8, ptr %10) #7
  call void @llvm.lifetime.start.p0(i64 8, ptr %11) #7
  call void @llvm.lifetime.start.p0(i64 4, ptr %12) #7
  call void @llvm.lifetime.start.p0(i64 8, ptr %13) #7
  %15 = load i64, ptr %7, align 8, !tbaa !51
  store i64 %15, ptr %13, align 8, !tbaa !51
  %16 = load ptr, ptr %5, align 8, !tbaa !9
  %17 = getelementptr inbounds nuw %struct.archive_write, ptr %16, i32 0, i32 15
  %18 = load ptr, ptr %17, align 8, !tbaa !32
  store ptr %18, ptr %8, align 8, !tbaa !22
  %19 = load ptr, ptr %8, align 8, !tbaa !22
  %20 = getelementptr inbounds nuw %struct.shar, ptr %19, i32 0, i32 3
  %21 = load i32, ptr %20, align 8, !tbaa !46
  %22 = icmp ne i32 %21, 0
  br i1 %22, label %23, label %26

23:                                               ; preds = %3
  %24 = load i64, ptr %7, align 8, !tbaa !51
  %25 = icmp eq i64 %24, 0
  br i1 %25, label %26, label %27

26:                                               ; preds = %23, %3
  store i64 0, ptr %4, align 8
  store i32 1, ptr %14, align 4
  br label %158

27:                                               ; preds = %23
  %28 = load ptr, ptr %6, align 8, !tbaa !50
  store ptr %28, ptr %9, align 8, !tbaa !43
  %29 = load ptr, ptr %8, align 8, !tbaa !22
  %30 = getelementptr inbounds nuw %struct.shar, ptr %29, i32 0, i32 8
  %31 = call ptr @archive_string_ensure(ptr noundef %30, i64 noundef 65536)
  %32 = icmp eq ptr %31, null
  br i1 %32, label %33, label %36

33:                                               ; preds = %27
  %34 = load ptr, ptr %5, align 8, !tbaa !9
  %35 = getelementptr inbounds nuw %struct.archive_write, ptr %34, i32 0, i32 0
  call void (ptr, i32, ptr, ...) @archive_set_error(ptr noundef %35, i32 noundef 12, ptr noundef @.str.9)
  store i64 -30, ptr %4, align 8
  store i32 1, ptr %14, align 4
  br label %158

36:                                               ; preds = %27
  %37 = load ptr, ptr %8, align 8, !tbaa !22
  %38 = getelementptr inbounds nuw %struct.shar, ptr %37, i32 0, i32 8
  %39 = getelementptr inbounds nuw %struct.archive_string, ptr %38, i32 0, i32 1
  %40 = load i64, ptr %39, align 8, !tbaa !27
  %41 = icmp ugt i64 %40, 65533
  br i1 %41, label %42, label %60

42:                                               ; preds = %36
  %43 = load ptr, ptr %5, align 8, !tbaa !9
  %44 = load ptr, ptr %8, align 8, !tbaa !22
  %45 = getelementptr inbounds nuw %struct.shar, ptr %44, i32 0, i32 8
  %46 = getelementptr inbounds nuw %struct.archive_string, ptr %45, i32 0, i32 0
  %47 = load ptr, ptr %46, align 8, !tbaa !24
  %48 = load ptr, ptr %8, align 8, !tbaa !22
  %49 = getelementptr inbounds nuw %struct.shar, ptr %48, i32 0, i32 8
  %50 = getelementptr inbounds nuw %struct.archive_string, ptr %49, i32 0, i32 1
  %51 = load i64, ptr %50, align 8, !tbaa !27
  %52 = call i32 @__archive_write_output(ptr noundef %43, ptr noundef %47, i64 noundef %51)
  store i32 %52, ptr %12, align 4, !tbaa !11
  %53 = load i32, ptr %12, align 4, !tbaa !11
  %54 = icmp ne i32 %53, 0
  br i1 %54, label %55, label %56

55:                                               ; preds = %42
  store i64 -30, ptr %4, align 8
  store i32 1, ptr %14, align 4
  br label %158

56:                                               ; preds = %42
  %57 = load ptr, ptr %8, align 8, !tbaa !22
  %58 = getelementptr inbounds nuw %struct.shar, ptr %57, i32 0, i32 8
  %59 = getelementptr inbounds nuw %struct.archive_string, ptr %58, i32 0, i32 1
  store i64 0, ptr %59, align 8, !tbaa !27
  br label %60

60:                                               ; preds = %56, %36
  %61 = load ptr, ptr %8, align 8, !tbaa !22
  %62 = getelementptr inbounds nuw %struct.shar, ptr %61, i32 0, i32 8
  %63 = getelementptr inbounds nuw %struct.archive_string, ptr %62, i32 0, i32 0
  %64 = load ptr, ptr %63, align 8, !tbaa !24
  %65 = load ptr, ptr %8, align 8, !tbaa !22
  %66 = getelementptr inbounds nuw %struct.shar, ptr %65, i32 0, i32 8
  %67 = getelementptr inbounds nuw %struct.archive_string, ptr %66, i32 0, i32 1
  %68 = load i64, ptr %67, align 8, !tbaa !27
  %69 = getelementptr inbounds nuw i8, ptr %64, i64 %68
  store ptr %69, ptr %10, align 8, !tbaa !43
  %70 = load ptr, ptr %8, align 8, !tbaa !22
  %71 = getelementptr inbounds nuw %struct.shar, ptr %70, i32 0, i32 8
  %72 = getelementptr inbounds nuw %struct.archive_string, ptr %71, i32 0, i32 0
  %73 = load ptr, ptr %72, align 8, !tbaa !24
  %74 = getelementptr inbounds nuw i8, ptr %73, i64 65533
  store ptr %74, ptr %11, align 8, !tbaa !43
  %75 = load ptr, ptr %8, align 8, !tbaa !22
  %76 = getelementptr inbounds nuw %struct.shar, ptr %75, i32 0, i32 1
  %77 = load i32, ptr %76, align 4, !tbaa !48
  %78 = icmp ne i32 %77, 0
  br i1 %78, label %79, label %84

79:                                               ; preds = %60
  %80 = load ptr, ptr %10, align 8, !tbaa !43
  %81 = getelementptr inbounds nuw i8, ptr %80, i32 1
  store ptr %81, ptr %10, align 8, !tbaa !43
  store i8 88, ptr %80, align 1, !tbaa !44
  %82 = load ptr, ptr %8, align 8, !tbaa !22
  %83 = getelementptr inbounds nuw %struct.shar, ptr %82, i32 0, i32 1
  store i32 0, ptr %83, align 4, !tbaa !48
  br label %84

84:                                               ; preds = %79, %60
  br label %85

85:                                               ; preds = %144, %84
  %86 = load i64, ptr %7, align 8, !tbaa !51
  %87 = add i64 %86, -1
  store i64 %87, ptr %7, align 8, !tbaa !51
  %88 = icmp ne i64 %86, 0
  br i1 %88, label %89, label %145

89:                                               ; preds = %85
  %90 = load ptr, ptr %9, align 8, !tbaa !43
  %91 = getelementptr inbounds nuw i8, ptr %90, i32 1
  store ptr %91, ptr %9, align 8, !tbaa !43
  %92 = load i8, ptr %90, align 1, !tbaa !44
  %93 = load ptr, ptr %10, align 8, !tbaa !43
  %94 = getelementptr inbounds nuw i8, ptr %93, i32 1
  store ptr %94, ptr %10, align 8, !tbaa !43
  store i8 %92, ptr %93, align 1, !tbaa !44
  %95 = sext i8 %92 to i32
  %96 = icmp eq i32 %95, 10
  br i1 %96, label %97, label %107

97:                                               ; preds = %89
  %98 = load i64, ptr %7, align 8, !tbaa !51
  %99 = icmp eq i64 %98, 0
  br i1 %99, label %100, label %103

100:                                              ; preds = %97
  %101 = load ptr, ptr %8, align 8, !tbaa !22
  %102 = getelementptr inbounds nuw %struct.shar, ptr %101, i32 0, i32 1
  store i32 1, ptr %102, align 4, !tbaa !48
  br label %106

103:                                              ; preds = %97
  %104 = load ptr, ptr %10, align 8, !tbaa !43
  %105 = getelementptr inbounds nuw i8, ptr %104, i32 1
  store ptr %105, ptr %10, align 8, !tbaa !43
  store i8 88, ptr %104, align 1, !tbaa !44
  br label %106

106:                                              ; preds = %103, %100
  br label %107

107:                                              ; preds = %106, %89
  %108 = load ptr, ptr %10, align 8, !tbaa !43
  %109 = load ptr, ptr %11, align 8, !tbaa !43
  %110 = icmp uge ptr %108, %109
  br i1 %110, label %111, label %144

111:                                              ; preds = %107
  %112 = load ptr, ptr %10, align 8, !tbaa !43
  %113 = load ptr, ptr %8, align 8, !tbaa !22
  %114 = getelementptr inbounds nuw %struct.shar, ptr %113, i32 0, i32 8
  %115 = getelementptr inbounds nuw %struct.archive_string, ptr %114, i32 0, i32 0
  %116 = load ptr, ptr %115, align 8, !tbaa !24
  %117 = ptrtoint ptr %112 to i64
  %118 = ptrtoint ptr %116 to i64
  %119 = sub i64 %117, %118
  %120 = load ptr, ptr %8, align 8, !tbaa !22
  %121 = getelementptr inbounds nuw %struct.shar, ptr %120, i32 0, i32 8
  %122 = getelementptr inbounds nuw %struct.archive_string, ptr %121, i32 0, i32 1
  store i64 %119, ptr %122, align 8, !tbaa !27
  %123 = load ptr, ptr %5, align 8, !tbaa !9
  %124 = load ptr, ptr %8, align 8, !tbaa !22
  %125 = getelementptr inbounds nuw %struct.shar, ptr %124, i32 0, i32 8
  %126 = getelementptr inbounds nuw %struct.archive_string, ptr %125, i32 0, i32 0
  %127 = load ptr, ptr %126, align 8, !tbaa !24
  %128 = load ptr, ptr %8, align 8, !tbaa !22
  %129 = getelementptr inbounds nuw %struct.shar, ptr %128, i32 0, i32 8
  %130 = getelementptr inbounds nuw %struct.archive_string, ptr %129, i32 0, i32 1
  %131 = load i64, ptr %130, align 8, !tbaa !27
  %132 = call i32 @__archive_write_output(ptr noundef %123, ptr noundef %127, i64 noundef %131)
  store i32 %132, ptr %12, align 4, !tbaa !11
  %133 = load i32, ptr %12, align 4, !tbaa !11
  %134 = icmp ne i32 %133, 0
  br i1 %134, label %135, label %136

135:                                              ; preds = %111
  store i64 -30, ptr %4, align 8
  store i32 1, ptr %14, align 4
  br label %158

136:                                              ; preds = %111
  %137 = load ptr, ptr %8, align 8, !tbaa !22
  %138 = getelementptr inbounds nuw %struct.shar, ptr %137, i32 0, i32 8
  %139 = getelementptr inbounds nuw %struct.archive_string, ptr %138, i32 0, i32 1
  store i64 0, ptr %139, align 8, !tbaa !27
  %140 = load ptr, ptr %8, align 8, !tbaa !22
  %141 = getelementptr inbounds nuw %struct.shar, ptr %140, i32 0, i32 8
  %142 = getelementptr inbounds nuw %struct.archive_string, ptr %141, i32 0, i32 0
  %143 = load ptr, ptr %142, align 8, !tbaa !24
  store ptr %143, ptr %10, align 8, !tbaa !43
  br label %144

144:                                              ; preds = %136, %107
  br label %85, !llvm.loop !52

145:                                              ; preds = %85
  %146 = load ptr, ptr %10, align 8, !tbaa !43
  %147 = load ptr, ptr %8, align 8, !tbaa !22
  %148 = getelementptr inbounds nuw %struct.shar, ptr %147, i32 0, i32 8
  %149 = getelementptr inbounds nuw %struct.archive_string, ptr %148, i32 0, i32 0
  %150 = load ptr, ptr %149, align 8, !tbaa !24
  %151 = ptrtoint ptr %146 to i64
  %152 = ptrtoint ptr %150 to i64
  %153 = sub i64 %151, %152
  %154 = load ptr, ptr %8, align 8, !tbaa !22
  %155 = getelementptr inbounds nuw %struct.shar, ptr %154, i32 0, i32 8
  %156 = getelementptr inbounds nuw %struct.archive_string, ptr %155, i32 0, i32 1
  store i64 %153, ptr %156, align 8, !tbaa !27
  %157 = load i64, ptr %13, align 8, !tbaa !51
  store i64 %157, ptr %4, align 8
  store i32 1, ptr %14, align 4
  br label %158

158:                                              ; preds = %145, %135, %55, %33, %26
  call void @llvm.lifetime.end.p0(i64 8, ptr %13) #7
  call void @llvm.lifetime.end.p0(i64 4, ptr %12) #7
  call void @llvm.lifetime.end.p0(i64 8, ptr %11) #7
  call void @llvm.lifetime.end.p0(i64 8, ptr %10) #7
  call void @llvm.lifetime.end.p0(i64 8, ptr %9) #7
  call void @llvm.lifetime.end.p0(i64 8, ptr %8) #7
  %159 = load i64, ptr %4, align 8
  ret i64 %159
}