; Function Attrs: nounwind uwtable
define internal noundef i64 @archive_write_shar_data_sed(ptr noundef %0, ptr noundef readonly captures(none) %1, i64 noundef %2) #0 {
  %4 = getelementptr inbounds nuw i8, ptr %0, i64 248
  %5 = load ptr, ptr %4, align 8, !tbaa !17
  %6 = getelementptr inbounds nuw i8, ptr %5, i64 16
  %7 = load i32, ptr %6, align 8, !tbaa !35
  %8 = icmp eq i32 %7, 0
  %9 = icmp eq i64 %2, 0
  %or.cond = or i1 %9, %8
  br i1 %or.cond, label %.loopexit, label %10

10:                                               ; preds = %3
  %11 = getelementptr inbounds nuw i8, ptr %5, i64 96
  %12 = tail call ptr @archive_string_ensure(ptr noundef nonnull %11, i64 noundef 65536) #8
  %13 = icmp eq ptr %12, null
  br i1 %13, label %14, label %15

14:                                               ; preds = %10
  tail call void (ptr, i32, ptr, ...) @archive_set_error(ptr noundef nonnull %0, i32 noundef 12, ptr noundef nonnull @.str.9) #8
  br label %.loopexit

15:                                               ; preds = %10
  %16 = getelementptr inbounds nuw i8, ptr %5, i64 104
  %17 = load i64, ptr %16, align 8, !tbaa !40
  %18 = icmp ugt i64 %17, 65533
  br i1 %18, label %19, label %23

19:                                               ; preds = %15
  %20 = load ptr, ptr %11, align 8, !tbaa !39
  %21 = tail call i32 @__archive_write_output(ptr noundef nonnull %0, ptr noundef %20, i64 noundef %17) #8
  %.not = icmp eq i32 %21, 0
  br i1 %.not, label %22, label %.loopexit

22:                                               ; preds = %19
  store i64 0, ptr %16, align 8, !tbaa !40
  br label %23

23:                                               ; preds = %22, %15
  %24 = phi i64 [ 0, %22 ], [ %17, %15 ]
  %25 = load ptr, ptr %11, align 8, !tbaa !39
  %26 = getelementptr inbounds nuw i8, ptr %25, i64 %24
  %27 = getelementptr inbounds nuw i8, ptr %25, i64 65533
  %28 = getelementptr inbounds nuw i8, ptr %5, i64 4
  %29 = load i32, ptr %28, align 4, !tbaa !37
  %.not46 = icmp eq i32 %29, 0
  br i1 %.not46, label %.lr.ph.preheader, label %30

30:                                               ; preds = %23
  %31 = getelementptr inbounds nuw i8, ptr %26, i64 1
  store i8 88, ptr %26, align 1, !tbaa !30
  store i32 0, ptr %28, align 4, !tbaa !37
  br label %.lr.ph.preheader

.lr.ph.preheader:                                 ; preds = %23, %30
  %.153.ph = phi ptr [ %31, %30 ], [ %26, %23 ]
  br label %.lr.ph

.lr.ph:                                           ; preds = %.lr.ph.preheader, %51
  %.in = phi i64 [ %32, %51 ], [ %2, %.lr.ph.preheader ]
  %.153 = phi ptr [ %.3, %51 ], [ %.153.ph, %.lr.ph.preheader ]
  %.04352 = phi ptr [ %33, %51 ], [ %1, %.lr.ph.preheader ]
  %32 = add i64 %.in, -1
  %33 = getelementptr inbounds nuw i8, ptr %.04352, i64 1
  %34 = load i8, ptr %.04352, align 1, !tbaa !30
  %35 = getelementptr inbounds nuw i8, ptr %.153, i64 1
  store i8 %34, ptr %.153, align 1, !tbaa !30
  %36 = icmp eq i8 %34, 10
  br i1 %36, label %37, label %42

37:                                               ; preds = %.lr.ph
  %38 = icmp eq i64 %32, 0
  br i1 %38, label %39, label %40

39:                                               ; preds = %37
  store i32 1, ptr %28, align 4, !tbaa !37
  br label %42

40:                                               ; preds = %37
  %41 = getelementptr inbounds nuw i8, ptr %.153, i64 2
  store i8 88, ptr %35, align 1, !tbaa !30
  br label %42

42:                                               ; preds = %39, %40, %.lr.ph
  %.2 = phi ptr [ %35, %39 ], [ %41, %40 ], [ %35, %.lr.ph ]
  %.not48 = icmp ult ptr %.2, %27
  br i1 %.not48, label %51, label %43

43:                                               ; preds = %42
  %44 = load ptr, ptr %11, align 8, !tbaa !39
  %45 = ptrtoint ptr %.2 to i64
  %46 = ptrtoint ptr %44 to i64
  %47 = sub i64 %45, %46
  store i64 %47, ptr %16, align 8, !tbaa !40
  %48 = tail call i32 @__archive_write_output(ptr noundef %0, ptr noundef %44, i64 noundef %47) #8
  %.not49 = icmp eq i32 %48, 0
  br i1 %.not49, label %49, label %.loopexit

49:                                               ; preds = %43
  store i64 0, ptr %16, align 8, !tbaa !40
  %50 = load ptr, ptr %11, align 8, !tbaa !39
  br label %51

51:                                               ; preds = %49, %42
  %.3 = phi ptr [ %50, %49 ], [ %.2, %42 ]
  %.not47 = icmp eq i64 %32, 0
  br i1 %.not47, label %._crit_edge, label %.lr.ph, !llvm.loop !41

._crit_edge:                                      ; preds = %51
  %52 = load ptr, ptr %11, align 8, !tbaa !39
  %53 = ptrtoint ptr %.3 to i64
  %54 = ptrtoint ptr %52 to i64
  %55 = sub i64 %53, %54
  store i64 %55, ptr %16, align 8, !tbaa !40
  br label %.loopexit

.loopexit:                                        ; preds = %43, %19, %3, %._crit_edge, %14
  %.0 = phi i64 [ -30, %14 ], [ %2, %._crit_edge ], [ 0, %3 ], [ -30, %19 ], [ -30, %43 ]
  ret i64 %.0
}